; Function Attrs: nounwind uwtable
define hidden range(i32 0, 2) i32 @uv__iou_fs_statx(ptr noundef %0, ptr noundef %1, i32 noundef %2, i32 noundef %3) local_unnamed_addr #0 {
  %5 = tail call ptr @uv__malloc(i64 noundef 256) #17
  %6 = icmp eq ptr %5, null
  br i1 %6, label %uv__iou_submit.exit, label %7

7:                                                ; preds = %4
  %8 = getelementptr inbounds nuw i8, ptr %0, i64 40
  %9 = load ptr, ptr %8, align 8
  %10 = getelementptr inbounds nuw i8, ptr %9, i64 320
  %11 = tail call fastcc ptr @uv__iou_get_sqe(ptr noundef nonnull %10, ptr noundef %0, ptr noundef %1)
  %12 = icmp eq ptr %11, null
  br i1 %12, label %13, label %14

13:                                               ; preds = %7
  tail call void @uv__free(ptr noundef nonnull %5) #17
  br label %uv__iou_submit.exit

14:                                               ; preds = %7
  %15 = getelementptr inbounds nuw i8, ptr %1, i64 96
  store ptr %5, ptr %15, align 8
  %16 = getelementptr inbounds nuw i8, ptr %1, i64 104
  %17 = load ptr, ptr %16, align 8
  %18 = ptrtoint ptr %17 to i64
  %19 = getelementptr inbounds nuw i8, ptr %11, i64 16
  store i64 %18, ptr %19, align 8
  %20 = ptrtoint ptr %5 to i64
  %21 = getelementptr inbounds nuw i8, ptr %11, i64 8
  store i64 %20, ptr %21, align 8
  %22 = getelementptr inbounds nuw i8, ptr %11, i64 4
  store i32 -100, ptr %22, align 4
  %23 = getelementptr inbounds nuw i8, ptr %11, i64 24
  store i32 4095, ptr %23, align 8
  store i8 21, ptr %11, align 8
  %.not = icmp eq i32 %2, 0
  br i1 %.not, label %30, label %24

24:                                               ; preds = %14
  store i64 ptrtoint (ptr @.str.5 to i64), ptr %19, align 8
  %25 = getelementptr inbounds nuw i8, ptr %1, i64 280
  %26 = load i32, ptr %25, align 8
  store i32 %26, ptr %22, align 4
  %27 = getelementptr inbounds nuw i8, ptr %11, i64 28
  %28 = load i32, ptr %27, align 4
  %29 = or i32 %28, 4096
  store i32 %29, ptr %27, align 4
  br label %30

30:                                               ; preds = %24, %14
  %.not26 = icmp eq i32 %3, 0
  br i1 %.not26, label %35, label %31

31:                                               ; preds = %30
  %32 = getelementptr inbounds nuw i8, ptr %11, i64 28
  %33 = load i32, ptr %32, align 4
  %34 = or i32 %33, 256
  store i32 %34, ptr %32, align 4
  br label %35

35:                                               ; preds = %31, %30
  %36 = getelementptr inbounds nuw i8, ptr %9, i64 328
  %37 = load ptr, ptr %36, align 8
  %38 = load i32, ptr %37, align 4
  %39 = add i32 %38, 1
  store atomic i32 %39, ptr %37 release, align 4
  %40 = getelementptr inbounds nuw i8, ptr %9, i64 344
  %41 = load ptr, ptr %40, align 8
  %42 = load atomic i32, ptr %41 acquire, align 4
  %43 = and i32 %42, 1
  %.not.i = icmp eq i32 %43, 0
  br i1 %.not.i, label %uv__iou_submit.exit, label %44

44:                                               ; preds = %35
  %45 = getelementptr inbounds nuw i8, ptr %9, i64 432
  %46 = load i32, ptr %45, align 8
  %47 = tail call i64 (i64, ...) @syscall(i64 noundef 426, i32 noundef %46, i32 noundef 0, i32 noundef 0, i32 noundef 2, ptr noundef null, i64 noundef 0) #17
  %48 = and i64 %47, 4294967295
  %.not6.i = icmp eq i64 %48, 0
  br i1 %.not6.i, label %uv__iou_submit.exit, label %49

49:                                               ; preds = %44
  %50 = tail call ptr @__errno_location() #19
  %51 = load i32, ptr %50, align 4
  %.not7.i = icmp eq i32 %51, 130
  br i1 %.not7.i, label %uv__iou_submit.exit, label %52

52:                                               ; preds = %49
  tail call void @perror(ptr noundef nonnull @.str.25) #21
  br label %uv__iou_submit.exit

uv__iou_submit.exit:                              ; preds = %52, %49, %44, %35, %4, %13
  %.0 = phi i32 [ 0, %13 ], [ 0, %4 ], [ 1, %35 ], [ 1, %44 ], [ 1, %49 ], [ 1, %52 ]
  ret i32 %.0
}